; Function Attrs: mustprogress nounwind uwtable
define dso_local void @_ZN27btConvex2dConvex2dAlgorithmD0Ev(ptr noundef nonnull align 8 dereferenceable(49) initializes((0, 8)) %0) unnamed_addr #2 align 2 personality ptr @__gxx_personality_v0 {
  store ptr getelementptr inbounds nuw inrange(-16, 40) (i8, ptr @_ZTV27btConvex2dConvex2dAlgorithm, i64 16), ptr %0, align 8, !tbaa !9
  %2 = getelementptr inbounds nuw i8, ptr %0, i64 32
  %3 = load i8, ptr %2, align 8, !tbaa !25, !range !28, !noundef !29
  %4 = trunc nuw i8 %3 to i1
  br i1 %4, label %5, label %_ZN27btConvex2dConvex2dAlgorithmD2Ev.exit

5:                                                ; preds = %1
  %6 = getelementptr inbounds nuw i8, ptr %0, i64 40
  %7 = load ptr, ptr %6, align 8, !tbaa !26
  %.not.i = icmp eq ptr %7, null
  br i1 %.not.i, label %_ZN27btConvex2dConvex2dAlgorithmD2Ev.exit, label %8

8:                                                ; preds = %5
  %9 = getelementptr inbounds nuw i8, ptr %0, i64 8
  %10 = load ptr, ptr %9, align 8, !tbaa !30
  %11 = load ptr, ptr %10, align 8, !tbaa !9
  %12 = getelementptr inbounds nuw i8, ptr %11, i64 32
  %13 = load ptr, ptr %12, align 8
  invoke void %13(ptr noundef nonnull align 8 dereferenceable(8) %10, ptr noundef nonnull %7)
          to label %_ZN27btConvex2dConvex2dAlgorithmD2Ev.exit unwind label %14

14:                                               ; preds = %8
  %15 = landingpad { ptr, i32 }
          catch ptr null
  %16 = extractvalue { ptr, i32 } %15, 0
  tail call void @__clang_call_terminate(ptr %16) #16
  unreachable

_ZN27btConvex2dConvex2dAlgorithmD2Ev.exit:        ; preds = %1, %5, %8
  tail call void @_ZN30btActivatingCollisionAlgorithmD2Ev(ptr noundef nonnull align 8 dereferenceable(49) %0) #15
  tail call void @_ZdlPvm(ptr noundef nonnull %0, i64 noundef 56) #14
  ret void
}